target datalayout = "e-m:e-p270:32:32-p271:32:32-p272:64:64-i64:64-i128:128-f80:128-n8:16:32:64-S128"
target triple = "x86_64-pc-linux-gnu"

%struct.H5EA_class_t = type { i32, ptr, i64, ptr, ptr, ptr, ptr, ptr, ptr, ptr, ptr }
%struct.H5EA_hdr_t = type { %struct.H5C_cache_entry_t, %struct.H5EA_create_t, i64, %struct.H5EA_stat_t, %struct.anon.1, i64, i64, i64, ptr, i64, i8, i64, i64, i8, i64, ptr, i64, ptr, i8, ptr, ptr }
%struct.H5C_cache_entry_t = type { ptr, i64, i64, ptr, i8, ptr, i8, i8, i8, i8, i32, i8, i8, i8, i8, i8, i32, ptr, i32, i32, i32, i32, i32, i8, i8, ptr, ptr, ptr, ptr, ptr, ptr, i8, i32, i8, i64, ptr, i64, i64, i32, i8, i32, i32, i8, ptr, ptr, ptr }
%struct.H5EA_create_t = type { ptr, i8, i8, i8, i8, i8, i8 }
%struct.H5EA_stat_t = type { %struct.anon, %struct.anon.0 }
%struct.anon = type { i64, i64, i64 }
%struct.anon.0 = type { i64, i64, i64, i64, i64, i64 }
%struct.anon.1 = type { i64, ptr }
%struct.H5EA_t = type { ptr, ptr }

@H5EA_init_g = global i8 0, align 1
@H5_libterm_g = external global i8, align 1
@.str = private unnamed_addr constant [98 x i8] c"generated/home/dtcxzyw/WorkSpace/Projects/compilers/llvm-opt-benchmark/bench/hdf5/hdf5/src/H5EA.c\00", align 1
@H5E_EARRAY_g = external global i64, align 8
@__func__.H5EA_iterate = private unnamed_addr constant [13 x i8] c"H5EA_iterate\00", align 1
@H5E_CANTALLOC_g = external global i64, align 8
@.str.14 = private unnamed_addr constant [54 x i8] c"memory allocation failed for extensible array element\00", align 1
@H5E_CANTGET_g = external global i64, align 8
@.str.15 = private unnamed_addr constant [29 x i8] c"unable to delete fixed array\00", align 1
@H5E_BADITER_g = external global i64, align 8
@.str.16 = private unnamed_addr constant [25 x i8] c"iteration callback error\00", align 1
@H5_ea_native_elmt_blk_free_list = internal global { i8, [3 x i8], i32, i32, [4 x i8], i64, ptr, ptr } { i8 0, [3 x i8] zeroinitializer, i32 0, i32 0, [4 x i8] zeroinitializer, i64 0, ptr @.str.38, ptr null }, align 8

; Function Attrs: nounwind uwtable
define i32 @H5EA_iterate(ptr noundef %0, ptr noundef %1, ptr noundef %2) #0 {
  %4 = alloca ptr, align 8
  %5 = alloca ptr, align 8
  %6 = alloca ptr, align 8
  %7 = alloca ptr, align 8
  %8 = alloca i64, align 8
  %9 = alloca i32, align 4
  %10 = alloca i8, align 1
  store ptr %0, ptr %4, align 8, !tbaa !11
  store ptr %1, ptr %5, align 8, !tbaa !10
  store ptr %2, ptr %6, align 8, !tbaa !10
  call void @llvm.lifetime.start.p0(i64 8, ptr %7) #6
  store ptr null, ptr %7, align 8, !tbaa !48
  call void @llvm.lifetime.start.p0(i64 8, ptr %8) #6
  call void @llvm.lifetime.start.p0(i64 4, ptr %9) #6
  store i32 0, ptr %9, align 4, !tbaa !43
  call void @llvm.lifetime.start.p0(i64 1, ptr %10) #6
  store i8 0, ptr %10, align 1, !tbaa !13
  %11 = load i8, ptr @H5EA_init_g, align 1, !tbaa !13, !range !15, !noundef !16
  %12 = trunc i8 %11 to i1
  br i1 %12, label %17, label %13

13:                                               ; preds = %3
  %14 = load i8, ptr @H5_libterm_g, align 1, !tbaa !13, !range !15, !noundef !16
  %15 = trunc i8 %14 to i1
  %16 = xor i1 %15, true
  br label %17

17:                                               ; preds = %13, %3
  %18 = phi i1 [ false, %3 ], [ %16, %13 ]
  %19 = xor i1 %18, true
  %20 = xor i1 %19, true
  %21 = zext i1 %20 to i32
  %22 = sext i32 %21 to i64
  %23 = call i64 @llvm.expect.i64(i64 %22, i64 0)
  %24 = icmp ne i64 %23, 0
  br i1 %24, label %25, label %26

25:                                               ; preds = %17
  store i8 1, ptr @H5EA_init_g, align 1, !tbaa !13
  br label %26

26:                                               ; preds = %25, %17
  %27 = load i8, ptr @H5EA_init_g, align 1, !tbaa !13, !range !15, !noundef !16
  %28 = trunc i8 %27 to i1
  br i1 %28, label %33, label %29

29:                                               ; preds = %26
  %30 = load i8, ptr @H5_libterm_g, align 1, !tbaa !13, !range !15, !noundef !16
  %31 = trunc i8 %30 to i1
  %32 = xor i1 %31, true
  br label %33

33:                                               ; preds = %29, %26
  %34 = phi i1 [ true, %26 ], [ %32, %29 ]
  %35 = xor i1 %34, true
  %36 = xor i1 %35, true
  %37 = zext i1 %36 to i32
  %38 = sext i32 %37 to i64
  %39 = call i64 @llvm.expect.i64(i64 %38, i64 1)
  %40 = icmp ne i64 %39, 0
  br i1 %40, label %41, label %138

41:                                               ; preds = %33
  %42 = load ptr, ptr %4, align 8, !tbaa !11
  %43 = getelementptr inbounds nuw %struct.H5EA_t, ptr %42, i32 0, i32 0
  %44 = load ptr, ptr %43, align 8, !tbaa !40
  %45 = getelementptr inbounds nuw %struct.H5EA_hdr_t, ptr %44, i32 0, i32 1
  %46 = getelementptr inbounds nuw %struct.H5EA_create_t, ptr %45, i32 0, i32 0
  %47 = load ptr, ptr %46, align 8, !tbaa !50
  %48 = getelementptr inbounds nuw %struct.H5EA_class_t, ptr %47, i32 0, i32 2
  %49 = load i64, ptr %48, align 8, !tbaa !51
  %50 = call noalias ptr @H5FL_blk_malloc(ptr noundef @H5_ea_native_elmt_blk_free_list, i64 noundef %49)
  store ptr %50, ptr %7, align 8, !tbaa !48
  %51 = icmp eq ptr null, %50
  br i1 %51, label %52, label %71

52:                                               ; preds = %41
  br label %53

53:                                               ; preds = %52
  br label %54

54:                                               ; preds = %53
  br label %55

55:                                               ; preds = %54
  %56 = load i64, ptr @H5E_EARRAY_g, align 8, !tbaa !17
  %57 = load i64, ptr @H5E_CANTALLOC_g, align 8, !tbaa !17
  %58 = call i32 (ptr, ptr, i32, i64, i64, ptr, ...) @H5E_printf_stack(ptr noundef @.str, ptr noundef @__func__.H5EA_iterate, i32 noundef 982, i64 noundef %56, i64 noundef %57, ptr noundef @.str.14)
  br label %59

59:                                               ; preds = %55
  br label %60

60:                                               ; preds = %59
  store i8 1, ptr %10, align 1, !tbaa !13
  %61 = load i8, ptr %10, align 1, !tbaa !13, !range !15, !noundef !16
  %62 = trunc i8 %61 to i1
  %63 = zext i1 %62 to i8
  store i8 %63, ptr %10, align 1, !tbaa !13
  br label %64

64:                                               ; preds = %60
  br label %65

65:                                               ; preds = %64
  br label %66

66:                                               ; preds = %65
  store i32 -1, ptr %9, align 4, !tbaa !43
  br label %131

67:                                               ; No predecessors!
  br label %68

68:                                               ; preds = %67
  br label %69

69:                                               ; preds = %68
  br label %70

70:                                               ; preds = %69
  br label %71

71:                                               ; preds = %70, %41
  store i64 0, ptr %8, align 8, !tbaa !17
  br label %72

72:                                               ; preds = %127, %71
  %73 = load i64, ptr %8, align 8, !tbaa !17
  %74 = load ptr, ptr %4, align 8, !tbaa !11
  %75 = getelementptr inbounds nuw %struct.H5EA_t, ptr %74, i32 0, i32 0
  %76 = load ptr, ptr %75, align 8, !tbaa !40
  %77 = getelementptr inbounds nuw %struct.H5EA_hdr_t, ptr %76, i32 0, i32 3
  %78 = getelementptr inbounds nuw %struct.H5EA_stat_t, ptr %77, i32 0, i32 1
  %79 = getelementptr inbounds nuw %struct.anon.0, ptr %78, i32 0, i32 4
  %80 = load i64, ptr %79, align 8, !tbaa !47
  %81 = icmp ult i64 %73, %80
  br i1 %81, label %82, label %85

82:                                               ; preds = %72
  %83 = load i32, ptr %9, align 4, !tbaa !43
  %84 = icmp eq i32 %83, 0
  br label %85

85:                                               ; preds = %82, %72
  %86 = phi i1 [ false, %72 ], [ %84, %82 ]
  br i1 %86, label %87, label %130

87:                                               ; preds = %85
  %88 = load ptr, ptr %4, align 8, !tbaa !11
  %89 = load i64, ptr %8, align 8, !tbaa !17
  %90 = load ptr, ptr %7, align 8, !tbaa !48
  %91 = call i32 @H5EA_get(ptr noundef %88, i64 noundef %89, ptr noundef %90)
  %92 = icmp slt i32 %91, 0
  br i1 %92, label %93, label %112

93:                                               ; preds = %87
  br label %94

94:                                               ; preds = %93
  br label %95

95:                                               ; preds = %94
  br label %96

96:                                               ; preds = %95
  %97 = load i64, ptr @H5E_EARRAY_g, align 8, !tbaa !17
  %98 = load i64, ptr @H5E_CANTGET_g, align 8, !tbaa !17
  %99 = call i32 (ptr, ptr, i32, i64, i64, ptr, ...) @H5E_printf_stack(ptr noundef @.str, ptr noundef @__func__.H5EA_iterate, i32 noundef 988, i64 noundef %97, i64 noundef %98, ptr noundef @.str.15)
  br label %100

100:                                              ; preds = %96
  br label %101

101:                                              ; preds = %100
  store i8 1, ptr %10, align 1, !tbaa !13
  %102 = load i8, ptr %10, align 1, !tbaa !13, !range !15, !noundef !16
  %103 = trunc i8 %102 to i1
  %104 = zext i1 %103 to i8
  store i8 %104, ptr %10, align 1, !tbaa !13
  br label %105

105:                                              ; preds = %101
  br label %106

106:                                              ; preds = %105
  br label %107

107:                                              ; preds = %106
  store i32 -1, ptr %9, align 4, !tbaa !43
  br label %131

108:                                              ; No predecessors!
  br label %109

109:                                              ; preds = %108
  br label %110

110:                                              ; preds = %109
  br label %111

111:                                              ; preds = %110
  br label %112

112:                                              ; preds = %111, %87
  %113 = load ptr, ptr %5, align 8, !tbaa !10
  %114 = load i64, ptr %8, align 8, !tbaa !17
  %115 = load ptr, ptr %7, align 8, !tbaa !48
  %116 = load ptr, ptr %6, align 8, !tbaa !10
  %117 = call i32 %113(i64 noundef %114, ptr noundef %115, ptr noundef %116)
  store i32 %117, ptr %9, align 4, !tbaa !43
  %118 = icmp slt i32 %117, 0
  br i1 %118, label %119, label %126

119:                                              ; preds = %112
  br label %120

120:                                              ; preds = %119
  %121 = load i64, ptr @H5E_EARRAY_g, align 8, !tbaa !17
  %122 = load i64, ptr @H5E_BADITER_g, align 8, !tbaa !17
  %123 = call i32 (ptr, ptr, i32, i64, i64, ptr, ...) @H5E_printf_stack(ptr noundef @.str, ptr noundef @__func__.H5EA_iterate, i32 noundef 992, i64 noundef %121, i64 noundef %122, ptr noundef @.str.16)
  br label %124

124:                                              ; preds = %120
  br label %125

125:                                              ; preds = %124
  br label %130

126:                                              ; preds = %112
  br label %127

127:                                              ; preds = %126
  %128 = load i64, ptr %8, align 8, !tbaa !17
  %129 = add i64 %128, 1
  store i64 %129, ptr %8, align 8, !tbaa !17
  br label %72, !llvm.loop !98

130:                                              ; preds = %125, %85
  br label %131

131:                                              ; preds = %130, %107, %66
  %132 = load ptr, ptr %7, align 8, !tbaa !48
  %133 = icmp ne ptr %132, null
  br i1 %133, label %134, label %137

134:                                              ; preds = %131
  %135 = load ptr, ptr %7, align 8, !tbaa !48
  %136 = call ptr @H5FL_blk_free(ptr noundef @H5_ea_native_elmt_blk_free_list, ptr noundef %135)
  store ptr %136, ptr %7, align 8, !tbaa !48
  br label %137

137:                                              ; preds = %134, %131
  br label %138

138:                                              ; preds = %137, %33
  %139 = load i32, ptr %9, align 4, !tbaa !43
  call void @llvm.lifetime.end.p0(i64 1, ptr %10) #6
  call void @llvm.lifetime.end.p0(i64 4, ptr %9) #6
  call void @llvm.lifetime.end.p0(i64 8, ptr %8) #6
  call void @llvm.lifetime.end.p0(i64 8, ptr %7) #6
  ret i32 %139
}