; Function Attrs: nounwind uwtable
define i32 @H5EA_iterate(ptr noundef readonly captures(none) %0, ptr noundef readonly captures(none) %1, ptr noundef %2) local_unnamed_addr #0 {
  %4 = load i8, ptr @H5EA_init_g, align 1, !tbaa !3, !range !7, !noundef !8
  %5 = trunc nuw i8 %4 to i1
  %6 = load i8, ptr @H5_libterm_g, align 1, !range !7
  %7 = trunc nuw i8 %6 to i1
  %8 = select i1 %5, i1 true, i1 %7
  br i1 %8, label %9, label %.thread, !prof !9

.thread:                                          ; preds = %3
  store i8 1, ptr @H5EA_init_g, align 1, !tbaa !3
  br label %12

9:                                                ; preds = %3
  %10 = xor i1 %7, true
  %11 = select i1 %5, i1 true, i1 %10
  br i1 %11, label %12, label %49, !prof !10

12:                                               ; preds = %.thread, %9
  %13 = load ptr, ptr %0, align 8, !tbaa !34
  %14 = getelementptr inbounds nuw i8, ptr %13, i64 248
  %15 = load ptr, ptr %14, align 8, !tbaa !44
  %16 = getelementptr inbounds nuw i8, ptr %15, i64 16
  %17 = load i64, ptr %16, align 8, !tbaa !45
  %18 = tail call noalias ptr @H5FL_blk_malloc(ptr noundef nonnull @H5_ea_native_elmt_blk_free_list, i64 noundef %17) #5
  %19 = icmp eq ptr %18, null
  br i1 %19, label %44, label %.preheader

.preheader:                                       ; preds = %12
  %20 = load ptr, ptr %0, align 8, !tbaa !34
  %21 = getelementptr inbounds nuw i8, ptr %20, i64 328
  %22 = load i64, ptr %21, align 8, !tbaa !40
  %.not = icmp eq i64 %22, 0
  br i1 %.not, label %.loopexit, label %.lr.ph

23:                                               ; preds = %37
  %24 = add nuw i64 %.01626, 1
  %25 = load ptr, ptr %0, align 8, !tbaa !34
  %26 = getelementptr inbounds nuw i8, ptr %25, i64 328
  %27 = load i64, ptr %26, align 8, !tbaa !40
  %28 = icmp ult i64 %24, %27
  %29 = icmp eq i32 %38, 0
  %30 = and i1 %29, %28
  br i1 %30, label %.lr.ph, label %.loopexit, !llvm.loop !84

.lr.ph:                                           ; preds = %.preheader, %23
  %.01626 = phi i64 [ %24, %23 ], [ 0, %.preheader ]
  %31 = tail call i32 @H5EA_get(ptr noundef nonnull %0, i64 noundef %.01626, ptr noundef nonnull %18)
  %32 = icmp slt i32 %31, 0
  br i1 %32, label %33, label %37

33:                                               ; preds = %.lr.ph
  %34 = load i64, ptr @H5E_EARRAY_g, align 8, !tbaa !11
  %35 = load i64, ptr @H5E_CANTGET_g, align 8, !tbaa !11
  %36 = tail call i32 (ptr, ptr, i32, i64, i64, ptr, ...) @H5E_printf_stack(ptr noundef nonnull @.str, ptr noundef nonnull @__func__.H5EA_iterate, i32 noundef 988, i64 noundef %34, i64 noundef %35, ptr noundef nonnull @.str.15) #5
  br label %.loopexit

37:                                               ; preds = %.lr.ph
  %38 = tail call i32 %1(i64 noundef %.01626, ptr noundef nonnull %18, ptr noundef %2) #5
  %39 = icmp slt i32 %38, 0
  br i1 %39, label %40, label %23

40:                                               ; preds = %37
  %41 = load i64, ptr @H5E_EARRAY_g, align 8, !tbaa !11
  %42 = load i64, ptr @H5E_BADITER_g, align 8, !tbaa !11
  %43 = tail call i32 (ptr, ptr, i32, i64, i64, ptr, ...) @H5E_printf_stack(ptr noundef nonnull @.str, ptr noundef nonnull @__func__.H5EA_iterate, i32 noundef 992, i64 noundef %41, i64 noundef %42, ptr noundef nonnull @.str.16) #5
  br label %.loopexit

44:                                               ; preds = %12
  %45 = load i64, ptr @H5E_EARRAY_g, align 8, !tbaa !11
  %46 = load i64, ptr @H5E_CANTALLOC_g, align 8, !tbaa !11
  %47 = tail call i32 (ptr, ptr, i32, i64, i64, ptr, ...) @H5E_printf_stack(ptr noundef nonnull @.str, ptr noundef nonnull @__func__.H5EA_iterate, i32 noundef 982, i64 noundef %45, i64 noundef %46, ptr noundef nonnull @.str.14) #5
  br label %49

.loopexit:                                        ; preds = %23, %.preheader, %40, %33
  %.1.ph = phi i32 [ %38, %40 ], [ -1, %33 ], [ 0, %.preheader ], [ %38, %23 ]
  %48 = tail call ptr @H5FL_blk_free(ptr noundef nonnull @H5_ea_native_elmt_blk_free_list, ptr noundef nonnull %18) #5
  br label %49

49:                                               ; preds = %44, %.loopexit, %9
  %.0 = phi i32 [ %.1.ph, %.loopexit ], [ -1, %44 ], [ 0, %9 ]
  ret i32 %.0
}